Certificate:
    Data:
        Version: 1 (0x0)
        Serial Number: 2 (0x2)
    Signature Algorithm: sha256WithRSAEncryption
        Issuer: C=DE, ST=NW, L=Steinfurt, O=FH-Muenster, OU=NPLAB, CN=dtls-ca.nplab.de
        Validity
            Not Before: May  8 17:15:49 2019 GMT
            Not After : May  7 17:15:49 2020 GMT
        Subject: C=DE, ST=NW, L=Steinfurt, O=FH-Muenster, OU=NPLAB, CN=dtls-client.nplab.de
        Subject Public Key Info:
            Public Key Algorithm: rsaEncryption
                Public-Key: (2048 bit)
                Modulus:
                    00:9f:aa:5f:b4:57:c8:91:a6:31:21:fb:0e:a1:01:
                    c0:46:47:70:d2:67:5d:16:15:e8:26:6c:c2:90:79:
                    d0:cb:2c:9b:37:d4:3c:f7:65:07:45:75:5e:95:aa:
                    d1:4a:a2:cf:52:64:71:55:51:8a:c3:e1:ff:5b:78:
                    db:88:d8:90:1e:c3:54:f0:16:9f:54:9b:f4:b8:b0:
                    7c:8a:b3:37:ea:46:38:be:92:de:be:c2:a4:c7:40:
                    68:39:46:05:79:74:df:8b:67:c8:cc:62:82:88:35:
                    65:a0:fe:2b:61:5f:28:ed:89:c1:0f:50:9c:35:fa:
                    3c:b8:65:72:0d:f8:27:ef:87:ee:44:6b:7c:f4:53:
                    0b:43:19:d1:46:1b:1e:66:19:53:37:f0:13:5c:d3:
                    a5:b6:be:36:9f:23:2a:e7:80:04:a7:22:96:c5:57:
                    64:d9:71:49:3c:a1:d6:84:83:ab:5b:b9:3a:ef:77:
                    40:7c:a9:e9:5e:0d:fa:33:a5:23:db:e7:41:10:43:
                    87:35:94:3f:39:26:fa:69:18:fb:ff:52:ea:c5:8d:
                    8f:6d:a3:b7:d7:ad:0a:66:ca:21:33:c5:27:c4:04:
                    7b:6f:19:22:3f:d2:a3:90:4b:ea:c2:8e:db:fd:81:
                    f9:4e:ef:0e:d4:b0:ee:4d:ad:81:fd:96:07:27:cf:
                    2d:31
                Exponent: 65537 (0x10001)
    Signature Algorithm: sha256WithRSAEncryption
         0e:ba:55:22:ef:e3:38:a0:c6:a6:e7:93:ed:ef:cb:c2:41:1f:
         8f:36:33:6f:a5:4b:74:4c:c8:1c:50:83:31:40:81:16:fa:70:
         5c:ab:e4:0e:79:ba:1d:48:87:1b:ef:91:61:6c:ae:26:c0:d2:
         21:fc:96:e8:6a:70:06:23:6e:a8:14:b0:7b:fb:5e:a2:41:ac:
         12:2d:86:fd:e8:4a:d8:32:50:5d:39:41:a8:ae:2b:71:7d:08:
         ca:24:2e:a9:5d:da:38:d7:73:73:3d:76:e9:fb:0a:13:16:97:
         4a:d6:df:00:52:c6:d5:d9:4b:07:fd:e3:78:1a:f3:f0:c3:5f:
         a8:dd:8b:93:cd:bd:a3:96:a4:0f:ec:d0:f8:9f:7f:95:9d:32:
         81:72:cd:5f:5a:66:21:c5:e6:6b:60:c0:b6:a7:7b:bb:c3:1b:
         2b:cf:ff:3b:72:27:73:36:6a:70:eb:a5:0f:2e:f1:41:31:f8:
         cf:53:8e:db:e3:e3:70:20:46:72:55:f9:f7:67:74:7f:c7:ed:
         23:fc:85:1c:16:45:5d:73:c1:53:d9:5d:76:34:47:d4:8d:2a:
         fd:94:b9:c5:94:83:f1:af:3d:34:42:b6:b0:12:fa:3e:37:6e:
         af:80:19:39:3d:fd:00:1d:92:86:49:06:a8:e3:a2:a0:0c:27:
         aa:c0:2d:80
-----BEGIN CERTIFICATE-----
MIIDVjCCAj4CAQIwDQYJKoZIhvcNAQELBQAwbzELMAkGA1UEBhMCREUxCzAJBgNV
BAgMAk5XMRIwEAYDVQQHDAlTdGVpbmZ1cnQxFDASBgNVBAoMC0ZILU11ZW5zdGVy
MQ4wDAYDVQQLDAVOUExBQjEZMBcGA1UEAwwQZHRscy1jYS5ucGxhYi5kZTAeFw0x
OTA1MDgxNzE1NDlaFw0yMDA1MDcxNzE1NDlaMHMxCzAJBgNVBAYTAkRFMQswCQYD
VQQIDAJOVzESMBAGA1UEBwwJU3RlaW5mdXJ0MRQwEgYDVQQKDAtGSC1NdWVuc3Rl
cjEOMAwGA1UECwwFTlBMQUIxHTAbBgNVBAMMFGR0bHMtY2xpZW50Lm5wbGFiLmRl
MIIBIjANBgkqhkiG9w0BAQEFAAOCAQ8AMIIBCgKCAQEAn6pftFfIkaYxIfsOoQHA
Rkdw0mddFhXoJmzCkHnQyyybN9Q892UHRXVelarRSqLPUmRxVVGKw+H/W3jbiNiQ
HsNU8BafVJv0uLB8irM36kY4vpLevsKkx0BoOUYFeXTfi2fIzGKCiDVloP4rYV8o
7YnBD1CcNfo8uGVyDfgn74fuRGt89FMLQxnRRhseZhlTN/ATXNOltr42nyMq54AE
pyKWxVdk2XFJPKHWhIOrW7k673dAfKnpXg36M6Uj2+dBEEOHNZQ/OSb6aRj7/1Lq
xY2PbaO3160KZsohM8UnxAR7bxkiP9KjkEvqwo7b/YH5Tu8O1LDuTa2B/ZYHJ88t
MQIDAQABMA0GCSqGSIb3DQEBCwUAA4IBAQAOulUi7+M4oMam55Pt78vCQR+PNjNv
pUt0TMgcUIMxQIEW+nBcq+QOebodSIcb75FhbK4mwNIh/JboanAGI26oFLB7+16i
QawSLYb96ErYMlBdOUGoritxfQjKJC6pXdo413NzPXbp+woTFpdK1t8AUsbV2UsH
/eN4GvPww1+o3YuTzb2jlqQP7ND4n3+VnTKBcs1fWmYhxeZrYMC2p3u7wxsrz/87
cidzNmpw66UPLvFBMfjPU47b4+NwIEZyVfn3Z3R/x+0j/IUcFkVdc8FT2V12NEfU
jSr9lLnFlIPxrz00QrawEvo+N26vgBk5Pf0AHZKGSQao46KgDCeqwC2A
-----END CERTIFICATE-----
