Certificate:
    Data:
        Version: 1 (0x0)
        Serial Number: 1 (0x1)
    Signature Algorithm: sha256WithRSAEncryption
        Issuer: C=DE, ST=NW, L=Steinfurt, O=FH-Muenster, OU=NPLAB, CN=dtls-ca.nplab.de
        Validity
            Not Before: May  8 17:14:57 2019 GMT
            Not After : May  7 17:14:57 2020 GMT
        Subject: C=DE, ST=NW, L=Steinfurt, O=FH-Muenster, OU=NPLAB, CN=dtls-server.nplab.de
        Subject Public Key Info:
            Public Key Algorithm: rsaEncryption
                Public-Key: (2048 bit)
                Modulus:
                    00:e6:c0:dd:b5:5d:2a:b9:25:c8:39:77:2b:78:29:
                    b3:07:07:44:11:bc:80:be:af:a6:58:54:e5:bf:a9:
                    e7:c6:f4:3f:4a:36:02:17:d4:1b:40:d4:f7:3a:d9:
                    43:c1:37:3d:8d:34:d4:13:5f:6a:20:58:2d:cb:88:
                    71:6c:a1:d4:c6:e4:e7:fe:3d:36:b3:37:7c:8e:22:
                    d2:f0:54:34:dd:2d:15:4e:30:c5:d9:bf:93:54:d5:
                    ed:ad:1b:16:af:a2:30:05:fc:e0:76:7e:fa:c3:73:
                    3b:47:71:5e:e5:5c:70:52:db:4e:c6:8d:6b:ce:d4:
                    a0:67:4b:69:c8:c6:fb:8c:3a:09:9d:bc:12:99:d1:
                    b9:f7:1d:3c:9c:9b:84:d8:60:06:21:52:de:ab:b7:
                    4c:4d:5d:3f:a8:4e:ba:2f:07:b6:d9:39:0d:20:98:
                    40:07:9a:26:30:62:32:20:c5:ff:90:91:37:1e:9c:
                    18:03:aa:21:81:bb:3f:bd:22:8b:3d:21:c0:2f:b7:
                    0d:88:da:2a:44:e2:df:9f:d3:d8:f8:f0:e4:67:42:
                    04:00:e2:4c:8d:96:3f:ee:b2:df:d5:4a:4a:86:3b:
                    a5:a8:5f:4f:ef:07:45:c5:4e:fc:5d:f2:59:bd:6c:
                    f8:79:97:6d:73:ae:e0:df:31:b4:df:92:32:80:82:
                    48:d3
                Exponent: 65537 (0x10001)
    Signature Algorithm: sha256WithRSAEncryption
         6c:1e:f3:85:05:2a:26:a2:de:e6:d5:ac:54:8e:5f:9e:7b:dc:
         cc:e3:53:06:ad:79:65:88:b8:cd:7a:64:32:30:dc:5f:49:36:
         89:a6:14:fe:f3:33:be:f4:80:59:93:25:5b:ea:82:a0:d6:17:
         8b:e3:72:ef:ac:02:41:94:9c:86:67:e6:0d:bc:aa:dc:e6:e6:
         24:92:7c:3a:cf:15:49:34:3c:69:5e:c6:aa:32:5a:aa:ee:fe:
         50:49:81:5f:23:2e:2a:d1:4d:e5:08:9d:7d:32:35:45:1e:a0:
         85:63:24:33:24:79:32:0f:74:0d:0a:7f:f6:8a:f7:13:a2:65:
         a6:ab:c1:1f:b1:06:10:61:92:00:f8:ee:31:3b:27:52:c6:82:
         66:fb:12:63:4c:53:f5:76:1f:00:fc:8a:ec:07:b0:02:49:82:
         76:d9:ba:2e:4a:d3:d6:5f:06:97:1a:54:0c:35:6f:cc:72:d0:
         33:76:aa:a9:a1:29:8a:77:b6:d1:51:b1:fe:91:8a:cc:3c:f5:
         1f:d5:41:30:ae:c9:24:de:a1:8d:57:f7:b9:7d:a2:ed:71:db:
         67:ab:1c:1f:00:18:ce:60:5b:28:b1:d4:e9:1c:d7:0d:39:d8:
         17:ca:8f:f3:30:8c:3f:2a:f6:1d:1c:1b:6e:dd:4e:73:9c:e8:
         88:6e:b4:cd
-----BEGIN CERTIFICATE-----
MIIDVjCCAj4CAQEwDQYJKoZIhvcNAQELBQAwbzELMAkGA1UEBhMCREUxCzAJBgNV
BAgMAk5XMRIwEAYDVQQHDAlTdGVpbmZ1cnQxFDASBgNVBAoMC0ZILU11ZW5zdGVy
MQ4wDAYDVQQLDAVOUExBQjEZMBcGA1UEAwwQZHRscy1jYS5ucGxhYi5kZTAeFw0x
OTA1MDgxNzE0NTdaFw0yMDA1MDcxNzE0NTdaMHMxCzAJBgNVBAYTAkRFMQswCQYD
VQQIDAJOVzESMBAGA1UEBwwJU3RlaW5mdXJ0MRQwEgYDVQQKDAtGSC1NdWVuc3Rl
cjEOMAwGA1UECwwFTlBMQUIxHTAbBgNVBAMMFGR0bHMtc2VydmVyLm5wbGFiLmRl
MIIBIjANBgkqhkiG9w0BAQEFAAOCAQ8AMIIBCgKCAQEA5sDdtV0quSXIOXcreCmz
BwdEEbyAvq+mWFTlv6nnxvQ/SjYCF9QbQNT3OtlDwTc9jTTUE19qIFgty4hxbKHU
xuTn/j02szd8jiLS8FQ03S0VTjDF2b+TVNXtrRsWr6IwBfzgdn76w3M7R3Fe5Vxw
UttOxo1rztSgZ0tpyMb7jDoJnbwSmdG59x08nJuE2GAGIVLeq7dMTV0/qE66Lwe2
2TkNIJhAB5omMGIyIMX/kJE3HpwYA6ohgbs/vSKLPSHAL7cNiNoqROLfn9PY+PDk
Z0IEAOJMjZY/7rLf1UpKhjulqF9P7wdFxU78XfJZvWz4eZdtc67g3zG035IygIJI
0wIDAQABMA0GCSqGSIb3DQEBCwUAA4IBAQBsHvOFBSomot7m1axUjl+ee9zM41MG
rXlliLjNemQyMNxfSTaJphT+8zO+9IBZkyVb6oKg1heL43LvrAJBlJyGZ+YNvKrc
5uYkknw6zxVJNDxpXsaqMlqq7v5QSYFfIy4q0U3lCJ19MjVFHqCFYyQzJHkyD3QN
Cn/2ivcTomWmq8EfsQYQYZIA+O4xOydSxoJm+xJjTFP1dh8A/IrsB7ACSYJ22bou
StPWXwaXGlQMNW/MctAzdqqpoSmKd7bRUbH+kYrMPPUf1UEwrskk3qGNV/e5faLt
cdtnqxwfABjOYFsosdTpHNcNOdgXyo/zMIw/KvYdHBtu3U5znOiIbrTN
-----END CERTIFICATE-----
